target datalayout = "e-m:e-p270:32:32-p271:32:32-p272:64:64-i64:64-i128:128-f80:128-n8:16:32:64-S128"
target triple = "x86_64-pc-linux-gnu"

%struct._ir_ctx = type { ptr, i32, i32, i32, i32, i32, i32, i32, i32, i32, i32, %struct._ir_insn, ptr, ptr, ptr, i32, i32, i32, ptr, ptr, ptr, ptr, ptr, i32, i32, i64, i32, i32, i32, i64, i32, i32, i32, i32, ptr, ptr, ptr, ptr, ptr, ptr, %union.anon.13, ptr, i32, i32, i32, i64, i32, i32, i32, ptr, ptr, ptr, ptr, %struct._ir_strtab, [61 x i32], [14 x i32] }
%struct._ir_insn = type { %struct.anon, %union.anon.5 }
%struct.anon = type { %union.anon, %union.anon.4 }
%union.anon = type { i32 }
%union.anon.4 = type { i32 }
%union.anon.5 = type { %union._ir_val }
%union._ir_val = type { double }
%union.anon.13 = type { ptr }
%struct._ir_strtab = type { ptr, i32, i32, i32, i32, ptr, i32, i32 }
%struct._ir_live_interval = type { i8, i8, i16, %union.anon.17, %union.anon.18, i32, %struct._ir_live_range, ptr, ptr, ptr, ptr }
%union.anon.17 = type { i32 }
%union.anon.18 = type { i32 }
%struct._ir_live_range = type { i32, i32, ptr }

; Function Attrs: nounwind uwtable
define internal void @ir_vregs_coalesce(ptr noundef %0, i32 noundef %1, i32 noundef %2, i32 noundef %3, i32 noundef %4) #0 {
  %6 = alloca ptr, align 8
  %7 = alloca i32, align 4
  %8 = alloca i32, align 4
  %9 = alloca i32, align 4
  %10 = alloca i32, align 4
  %11 = alloca i32, align 4
  %12 = alloca i16, align 2
  %13 = alloca i16, align 2
  store ptr %0, ptr %6, align 8
  store i32 %1, ptr %7, align 4
  store i32 %2, ptr %8, align 4
  store i32 %3, ptr %9, align 4
  store i32 %4, ptr %10, align 4
  %14 = load ptr, ptr %6, align 8
  %15 = getelementptr inbounds %struct._ir_ctx, ptr %14, i32 0, i32 34
  %16 = load ptr, ptr %15, align 8
  %17 = load i32, ptr %7, align 4
  %18 = zext i32 %17 to i64
  %19 = getelementptr inbounds ptr, ptr %16, i64 %18
  %20 = load ptr, ptr %19, align 8
  %21 = getelementptr inbounds %struct._ir_live_interval, ptr %20, i32 0, i32 2
  %22 = load i16, ptr %21, align 2
  store i16 %22, ptr %12, align 2
  %23 = load ptr, ptr %6, align 8
  %24 = getelementptr inbounds %struct._ir_ctx, ptr %23, i32 0, i32 34
  %25 = load ptr, ptr %24, align 8
  %26 = load i32, ptr %8, align 4
  %27 = zext i32 %26 to i64
  %28 = getelementptr inbounds ptr, ptr %25, i64 %27
  %29 = load ptr, ptr %28, align 8
  %30 = getelementptr inbounds %struct._ir_live_interval, ptr %29, i32 0, i32 2
  %31 = load i16, ptr %30, align 2
  store i16 %31, ptr %13, align 2
  %32 = load i16, ptr %12, align 2
  %33 = zext i16 %32 to i32
  %34 = and i32 %33, 64
  %35 = icmp ne i32 %34, 0
  br i1 %35, label %36, label %52

36:                                               ; preds = %5
  %37 = load i16, ptr %13, align 2
  %38 = zext i16 %37 to i32
  %39 = and i32 %38, 64
  %40 = icmp ne i32 %39, 0
  br i1 %40, label %52, label %41

41:                                               ; preds = %36
  %42 = load ptr, ptr %6, align 8
  %43 = load i32, ptr %7, align 4
  %44 = load i32, ptr %8, align 4
  call void @ir_vregs_join(ptr noundef %42, i32 noundef %43, i32 noundef %44)
  %45 = load i32, ptr %7, align 4
  %46 = load ptr, ptr %6, align 8
  %47 = getelementptr inbounds %struct._ir_ctx, ptr %46, i32 0, i32 22
  %48 = load ptr, ptr %47, align 8
  %49 = load i32, ptr %10, align 4
  %50 = sext i32 %49 to i64
  %51 = getelementptr inbounds i32, ptr %48, i64 %50
  store i32 %45, ptr %51, align 4
  br label %173

52:                                               ; preds = %36, %5
  %53 = load i16, ptr %13, align 2
  %54 = zext i16 %53 to i32
  %55 = and i32 %54, 64
  %56 = icmp ne i32 %55, 0
  br i1 %56, label %57, label %73

57:                                               ; preds = %52
  %58 = load i16, ptr %12, align 2
  %59 = zext i16 %58 to i32
  %60 = and i32 %59, 64
  %61 = icmp ne i32 %60, 0
  br i1 %61, label %73, label %62

62:                                               ; preds = %57
  %63 = load ptr, ptr %6, align 8
  %64 = load i32, ptr %8, align 4
  %65 = load i32, ptr %7, align 4
  call void @ir_vregs_join(ptr noundef %63, i32 noundef %64, i32 noundef %65)
  %66 = load i32, ptr %8, align 4
  %67 = load ptr, ptr %6, align 8
  %68 = getelementptr inbounds %struct._ir_ctx, ptr %67, i32 0, i32 22
  %69 = load ptr, ptr %68, align 8
  %70 = load i32, ptr %9, align 4
  %71 = sext i32 %70 to i64
  %72 = getelementptr inbounds i32, ptr %69, i64 %71
  store i32 %66, ptr %72, align 4
  br label %172

73:                                               ; preds = %57, %52
  %74 = load i32, ptr %9, align 4
  %75 = load i32, ptr %10, align 4
  %76 = icmp slt i32 %74, %75
  br i1 %76, label %77, label %124

77:                                               ; preds = %73
  %78 = load ptr, ptr %6, align 8
  %79 = load i32, ptr %7, align 4
  %80 = load i32, ptr %8, align 4
  call void @ir_vregs_join(ptr noundef %78, i32 noundef %79, i32 noundef %80)
  %81 = load i16, ptr %13, align 2
  %82 = zext i16 %81 to i32
  %83 = and i32 %82, 64
  %84 = icmp ne i32 %83, 0
  br i1 %84, label %85, label %115

85:                                               ; preds = %77
  store i32 1, ptr %11, align 4
  br label %86

86:                                               ; preds = %111, %85
  %87 = load i32, ptr %11, align 4
  %88 = load ptr, ptr %6, align 8
  %89 = getelementptr inbounds %struct._ir_ctx, ptr %88, i32 0, i32 1
  %90 = load i32, ptr %89, align 8
  %91 = icmp slt i32 %87, %90
  br i1 %91, label %92, label %114

92:                                               ; preds = %86
  %93 = load ptr, ptr %6, align 8
  %94 = getelementptr inbounds %struct._ir_ctx, ptr %93, i32 0, i32 22
  %95 = load ptr, ptr %94, align 8
  %96 = load i32, ptr %11, align 4
  %97 = sext i32 %96 to i64
  %98 = getelementptr inbounds i32, ptr %95, i64 %97
  %99 = load i32, ptr %98, align 4
  %100 = load i32, ptr %8, align 4
  %101 = icmp eq i32 %99, %100
  br i1 %101, label %102, label %110

102:                                              ; preds = %92
  %103 = load i32, ptr %7, align 4
  %104 = load ptr, ptr %6, align 8
  %105 = getelementptr inbounds %struct._ir_ctx, ptr %104, i32 0, i32 22
  %106 = load ptr, ptr %105, align 8
  %107 = load i32, ptr %11, align 4
  %108 = sext i32 %107 to i64
  %109 = getelementptr inbounds i32, ptr %106, i64 %108
  store i32 %103, ptr %109, align 4
  br label %110

110:                                              ; preds = %102, %92
  br label %111

111:                                              ; preds = %110
  %112 = load i32, ptr %11, align 4
  %113 = add nsw i32 %112, 1
  store i32 %113, ptr %11, align 4
  br label %86

114:                                              ; preds = %86
  br label %123

115:                                              ; preds = %77
  %116 = load i32, ptr %7, align 4
  %117 = load ptr, ptr %6, align 8
  %118 = getelementptr inbounds %struct._ir_ctx, ptr %117, i32 0, i32 22
  %119 = load ptr, ptr %118, align 8
  %120 = load i32, ptr %10, align 4
  %121 = sext i32 %120 to i64
  %122 = getelementptr inbounds i32, ptr %119, i64 %121
  store i32 %116, ptr %122, align 4
  br label %123

123:                                              ; preds = %115, %114
  br label %171

124:                                              ; preds = %73
  %125 = load ptr, ptr %6, align 8
  %126 = load i32, ptr %8, align 4
  %127 = load i32, ptr %7, align 4
  call void @ir_vregs_join(ptr noundef %125, i32 noundef %126, i32 noundef %127)
  %128 = load i16, ptr %12, align 2
  %129 = zext i16 %128 to i32
  %130 = and i32 %129, 64
  %131 = icmp ne i32 %130, 0
  br i1 %131, label %132, label %162

132:                                              ; preds = %124
  store i32 1, ptr %11, align 4
  br label %133

133:                                              ; preds = %158, %132
  %134 = load i32, ptr %11, align 4
  %135 = load ptr, ptr %6, align 8
  %136 = getelementptr inbounds %struct._ir_ctx, ptr %135, i32 0, i32 1
  %137 = load i32, ptr %136, align 8
  %138 = icmp slt i32 %134, %137
  br i1 %138, label %139, label %161

139:                                              ; preds = %133
  %140 = load ptr, ptr %6, align 8
  %141 = getelementptr inbounds %struct._ir_ctx, ptr %140, i32 0, i32 22
  %142 = load ptr, ptr %141, align 8
  %143 = load i32, ptr %11, align 4
  %144 = sext i32 %143 to i64
  %145 = getelementptr inbounds i32, ptr %142, i64 %144
  %146 = load i32, ptr %145, align 4
  %147 = load i32, ptr %7, align 4
  %148 = icmp eq i32 %146, %147
  br i1 %148, label %149, label %157

149:                                              ; preds = %139
  %150 = load i32, ptr %8, align 4
  %151 = load ptr, ptr %6, align 8
  %152 = getelementptr inbounds %struct._ir_ctx, ptr %151, i32 0, i32 22
  %153 = load ptr, ptr %152, align 8
  %154 = load i32, ptr %11, align 4
  %155 = sext i32 %154 to i64
  %156 = getelementptr inbounds i32, ptr %153, i64 %155
  store i32 %150, ptr %156, align 4
  br label %157

157:                                              ; preds = %149, %139
  br label %158

158:                                              ; preds = %157
  %159 = load i32, ptr %11, align 4
  %160 = add nsw i32 %159, 1
  store i32 %160, ptr %11, align 4
  br label %133

161:                                              ; preds = %133
  br label %170

162:                                              ; preds = %124
  %163 = load i32, ptr %8, align 4
  %164 = load ptr, ptr %6, align 8
  %165 = getelementptr inbounds %struct._ir_ctx, ptr %164, i32 0, i32 22
  %166 = load ptr, ptr %165, align 8
  %167 = load i32, ptr %9, align 4
  %168 = sext i32 %167 to i64
  %169 = getelementptr inbounds i32, ptr %166, i64 %168
  store i32 %163, ptr %169, align 4
  br label %170

170:                                              ; preds = %162, %161
  br label %171

171:                                              ; preds = %170, %123
  br label %172

172:                                              ; preds = %171, %62
  br label %173

173:                                              ; preds = %172, %41
  ret void
}