; Function Attrs: nounwind uwtable
define internal fastcc void @ir_vregs_coalesce(ptr nocapture noundef %0, i32 noundef %1, i32 noundef %2, i32 noundef %3, i32 noundef %4) unnamed_addr #1 {
  %6 = getelementptr inbounds i8, ptr %0, i64 200
  %7 = load ptr, ptr %6, align 8
  %8 = zext i32 %1 to i64
  %9 = getelementptr inbounds ptr, ptr %7, i64 %8
  %10 = load ptr, ptr %9, align 8
  %11 = getelementptr inbounds i8, ptr %10, i64 2
  %12 = load i16, ptr %11, align 2
  %13 = zext i32 %2 to i64
  %14 = getelementptr inbounds ptr, ptr %7, i64 %13
  %15 = load ptr, ptr %14, align 8
  %16 = getelementptr inbounds i8, ptr %15, i64 2
  %17 = load i16, ptr %16, align 2
  %18 = and i16 %12, 64
  %.not = icmp ne i16 %18, 0
  %19 = and i16 %17, 64
  %.not55 = icmp eq i16 %19, 0
  %or.cond = select i1 %.not, i1 %.not55, i1 false
  br i1 %or.cond, label %20, label %21

20:                                               ; preds = %5
  tail call fastcc void @ir_vregs_join(ptr noundef nonnull %0, i32 noundef %1, i32 noundef %2)
  br label %.loopexit.sink.split

21:                                               ; preds = %5
  %brmerge = or i1 %.not, %.not55
  br i1 %brmerge, label %23, label %22

22:                                               ; preds = %21
  tail call fastcc void @ir_vregs_join(ptr noundef nonnull %0, i32 noundef %2, i32 noundef %1)
  br label %.loopexit.sink.split

23:                                               ; preds = %21
  %24 = icmp slt i32 %3, %4
  br i1 %24, label %25, label %41

25:                                               ; preds = %23
  tail call fastcc void @ir_vregs_join(ptr noundef nonnull %0, i32 noundef %1, i32 noundef %2)
  br i1 %.not55, label %.loopexit.sink.split, label %.preheader

.preheader:                                       ; preds = %25
  %26 = getelementptr inbounds i8, ptr %0, i64 8
  %27 = load i32, ptr %26, align 8
  %28 = icmp sgt i32 %27, 1
  br i1 %28, label %.lr.ph62, label %.loopexit

.lr.ph62:                                         ; preds = %.preheader
  %29 = getelementptr inbounds i8, ptr %0, i64 136
  br label %30

30:                                               ; preds = %.lr.ph62, %37
  %31 = phi i32 [ %27, %.lr.ph62 ], [ %38, %37 ]
  %indvars.iv65 = phi i64 [ 1, %.lr.ph62 ], [ %indvars.iv.next66, %37 ]
  %32 = load ptr, ptr %29, align 8
  %33 = getelementptr inbounds i32, ptr %32, i64 %indvars.iv65
  %34 = load i32, ptr %33, align 4
  %35 = icmp eq i32 %34, %2
  br i1 %35, label %36, label %37

36:                                               ; preds = %30
  store i32 %1, ptr %33, align 4
  %.pre68 = load i32, ptr %26, align 8
  br label %37

37:                                               ; preds = %30, %36
  %38 = phi i32 [ %31, %30 ], [ %.pre68, %36 ]
  %indvars.iv.next66 = add nuw nsw i64 %indvars.iv65, 1
  %39 = sext i32 %38 to i64
  %40 = icmp slt i64 %indvars.iv.next66, %39
  br i1 %40, label %30, label %.loopexit

41:                                               ; preds = %23
  tail call fastcc void @ir_vregs_join(ptr noundef nonnull %0, i32 noundef %2, i32 noundef %1)
  br i1 %.not, label %.preheader58, label %.loopexit.sink.split

.preheader58:                                     ; preds = %41
  %42 = getelementptr inbounds i8, ptr %0, i64 8
  %43 = load i32, ptr %42, align 8
  %44 = icmp sgt i32 %43, 1
  br i1 %44, label %.lr.ph, label %.loopexit

.lr.ph:                                           ; preds = %.preheader58
  %45 = getelementptr inbounds i8, ptr %0, i64 136
  br label %46

46:                                               ; preds = %.lr.ph, %53
  %47 = phi i32 [ %43, %.lr.ph ], [ %54, %53 ]
  %indvars.iv = phi i64 [ 1, %.lr.ph ], [ %indvars.iv.next, %53 ]
  %48 = load ptr, ptr %45, align 8
  %49 = getelementptr inbounds i32, ptr %48, i64 %indvars.iv
  %50 = load i32, ptr %49, align 4
  %51 = icmp eq i32 %50, %1
  br i1 %51, label %52, label %53

52:                                               ; preds = %46
  store i32 %2, ptr %49, align 4
  %.pre = load i32, ptr %42, align 8
  br label %53

53:                                               ; preds = %46, %52
  %54 = phi i32 [ %47, %46 ], [ %.pre, %52 ]
  %indvars.iv.next = add nuw nsw i64 %indvars.iv, 1
  %55 = sext i32 %54 to i64
  %56 = icmp slt i64 %indvars.iv.next, %55
  br i1 %56, label %46, label %.loopexit

.loopexit.sink.split:                             ; preds = %41, %25, %20, %22
  %.sink73 = phi i32 [ %3, %22 ], [ %4, %20 ], [ %4, %25 ], [ %3, %41 ]
  %.sink = phi i32 [ %2, %22 ], [ %1, %20 ], [ %1, %25 ], [ %2, %41 ]
  %57 = getelementptr inbounds i8, ptr %0, i64 136
  %58 = load ptr, ptr %57, align 8
  %59 = sext i32 %.sink73 to i64
  %60 = getelementptr inbounds i32, ptr %58, i64 %59
  store i32 %.sink, ptr %60, align 4
  br label %.loopexit

.loopexit:                                        ; preds = %53, %37, %.loopexit.sink.split, %.preheader58, %.preheader
  ret void
}